; Function Attrs: nounwind uwtable
define noundef nonnull ptr @l_Lean_SourceInfo_getPos_x3f(ptr noundef %0, i8 noundef zeroext %1) local_unnamed_addr #0 {
  %3 = ptrtoint ptr %0 to i64
  %4 = and i64 %3, 1
  %.not.i = icmp eq i64 %4, 0
  br i1 %.not.i, label %8, label %5

5:                                                ; preds = %2
  %6 = lshr i64 %3, 1
  %7 = trunc i64 %6 to i32
  br label %lean_obj_tag.exit

8:                                                ; preds = %2
  %9 = getelementptr i8, ptr %0, i64 4
  %.val.i = load i32, ptr %9, align 4
  %10 = lshr i32 %.val.i, 24
  br label %lean_obj_tag.exit

lean_obj_tag.exit:                                ; preds = %5, %8
  %.0.i = phi i32 [ %7, %5 ], [ %10, %8 ]
  switch i32 %.0.i, label %60 [
    i32 0, label %11
    i32 1, label %25
  ]

11:                                               ; preds = %lean_obj_tag.exit
  %12 = getelementptr inbounds nuw i8, ptr %0, i64 16
  %13 = load ptr, ptr %12, align 8, !tbaa !10
  %14 = ptrtoint ptr %13 to i64
  %15 = and i64 %14, 1
  %.not34 = icmp eq i64 %15, 0
  br i1 %.not34, label %16, label %lean_inc.exit22

16:                                               ; preds = %11
  %.val.i23 = load i32, ptr %13, align 4, !tbaa !4
  %17 = icmp sgt i32 %.val.i23, 0
  br i1 %17, label %18, label %20, !prof !9

18:                                               ; preds = %16
  %19 = add nuw i32 %.val.i23, 1
  store i32 %19, ptr %13, align 4, !tbaa !4
  br label %lean_inc.exit22

20:                                               ; preds = %16
  %.not.i24 = icmp eq i32 %.val.i23, 0
  br i1 %.not.i24, label %lean_inc.exit22, label %21

21:                                               ; preds = %20
  tail call void @lean_inc_ref_cold(ptr noundef nonnull %13) #11
  br label %lean_inc.exit22

lean_inc.exit22:                                  ; preds = %21, %20, %18, %11
  tail call void @lean_inc_heartbeat() #11
  %22 = tail call noalias ptr @mi_malloc_small(i64 noundef 16) #11
  %23 = icmp eq ptr %22, null
  br i1 %23, label %24, label %.sink.split

24:                                               ; preds = %lean_inc.exit22
  tail call void @lean_internal_panic_out_of_memory() #12
  unreachable

25:                                               ; preds = %lean_obj_tag.exit
  %26 = getelementptr i8, ptr %0, i64 24
  %.val = load i8, ptr %26, align 1, !tbaa !20
  %27 = icmp eq i8 %.val, 0
  br i1 %27, label %28, label %44

28:                                               ; preds = %25
  %29 = icmp eq i8 %1, 0
  br i1 %29, label %30, label %60

30:                                               ; preds = %28
  %31 = getelementptr inbounds nuw i8, ptr %0, i64 8
  %32 = load ptr, ptr %31, align 8, !tbaa !10
  %33 = ptrtoint ptr %32 to i64
  %34 = and i64 %33, 1
  %.not33 = icmp eq i64 %34, 0
  br i1 %.not33, label %35, label %lean_inc.exit21

35:                                               ; preds = %30
  %.val.i25 = load i32, ptr %32, align 4, !tbaa !4
  %36 = icmp sgt i32 %.val.i25, 0
  br i1 %36, label %37, label %39, !prof !9

37:                                               ; preds = %35
  %38 = add nuw i32 %.val.i25, 1
  store i32 %38, ptr %32, align 4, !tbaa !4
  br label %lean_inc.exit21

39:                                               ; preds = %35
  %.not.i26 = icmp eq i32 %.val.i25, 0
  br i1 %.not.i26, label %lean_inc.exit21, label %40

40:                                               ; preds = %39
  tail call void @lean_inc_ref_cold(ptr noundef nonnull %32) #11
  br label %lean_inc.exit21

lean_inc.exit21:                                  ; preds = %40, %39, %37, %30
  tail call void @lean_inc_heartbeat() #11
  %41 = tail call noalias ptr @mi_malloc_small(i64 noundef 16) #11
  %42 = icmp eq ptr %41, null
  br i1 %42, label %43, label %.sink.split

43:                                               ; preds = %lean_inc.exit21
  tail call void @lean_internal_panic_out_of_memory() #12
  unreachable

44:                                               ; preds = %25
  %45 = getelementptr inbounds nuw i8, ptr %0, i64 8
  %46 = load ptr, ptr %45, align 8, !tbaa !10
  %47 = ptrtoint ptr %46 to i64
  %48 = and i64 %47, 1
  %.not = icmp eq i64 %48, 0
  br i1 %.not, label %49, label %lean_inc.exit

49:                                               ; preds = %44
  %.val.i29 = load i32, ptr %46, align 4, !tbaa !4
  %50 = icmp sgt i32 %.val.i29, 0
  br i1 %50, label %51, label %53, !prof !9

51:                                               ; preds = %49
  %52 = add nuw i32 %.val.i29, 1
  store i32 %52, ptr %46, align 4, !tbaa !4
  br label %lean_inc.exit

53:                                               ; preds = %49
  %.not.i30 = icmp eq i32 %.val.i29, 0
  br i1 %.not.i30, label %lean_inc.exit, label %54

54:                                               ; preds = %53
  tail call void @lean_inc_ref_cold(ptr noundef nonnull %46) #11
  br label %lean_inc.exit

lean_inc.exit:                                    ; preds = %54, %53, %51, %44
  tail call void @lean_inc_heartbeat() #11
  %55 = tail call noalias ptr @mi_malloc_small(i64 noundef 16) #11
  %56 = icmp eq ptr %55, null
  br i1 %56, label %57, label %.sink.split

57:                                               ; preds = %lean_inc.exit
  tail call void @lean_internal_panic_out_of_memory() #12
  unreachable

.sink.split:                                      ; preds = %lean_inc.exit, %lean_inc.exit21, %lean_inc.exit22
  %.sink39 = phi ptr [ %22, %lean_inc.exit22 ], [ %41, %lean_inc.exit21 ], [ %55, %lean_inc.exit ]
  %.sink = phi ptr [ %13, %lean_inc.exit22 ], [ %32, %lean_inc.exit21 ], [ %46, %lean_inc.exit ]
  %58 = getelementptr inbounds nuw i8, ptr %.sink39, i64 4
  store i32 1, ptr %.sink39, align 4, !tbaa !4
  store i32 16842768, ptr %58, align 4
  %59 = getelementptr inbounds nuw i8, ptr %.sink39, i64 8
  store ptr %.sink, ptr %59, align 8, !tbaa !10
  br label %60

60:                                               ; preds = %.sink.split, %lean_obj_tag.exit, %28
  %.0 = phi ptr [ inttoptr (i64 1 to ptr), %28 ], [ inttoptr (i64 1 to ptr), %lean_obj_tag.exit ], [ %.sink39, %.sink.split ]
  ret ptr %.0
}